target datalayout = "e-m:e-p270:32:32-p271:32:32-p272:64:64-i64:64-i128:128-f80:128-n8:16:32:64-S128"
target triple = "x86_64-pc-linux-gnu"

%"class.rocksdb::PointLockTracker" = type { %"class.rocksdb::LockTracker", %"class.std::unordered_map" }
%"class.rocksdb::LockTracker" = type { ptr }
%"class.std::unordered_map" = type { %"class.std::_Hashtable" }
%"class.std::_Hashtable" = type { ptr, i64, %"struct.std::__detail::_Hash_node_base", i64, %"struct.std::__detail::_Prime_rehash_policy", ptr }
%"struct.std::__detail::_Hash_node_base" = type { ptr }
%"struct.std::__detail::_Prime_rehash_policy" = type { float, i64 }

; Function Attrs: mustprogress nounwind uwtable
define linkonce_odr noundef ptr @_ZNKSt10_HashtableIjSt4pairIKjSt13unordered_mapINSt7__cxx1112basic_stringIcSt11char_traitsIcESaIcEEEN7rocksdb14TrackedKeyInfoESt4hashIS8_ESt8equal_toIS8_ESaIS0_IKS8_SA_EEEESaISJ_ENSt8__detail10_Select1stESD_IjESB_IjENSL_18_Mod_range_hashingENSL_20_Default_ranged_hashENSL_20_Prime_rehash_policyENSL_17_Hashtable_traitsILb0ELb0ELb1EEEE8_M_beginEv(ptr noundef nonnull align 8 dereferenceable(56) %0) #3 comdat align 2 {
  %2 = alloca ptr, align 8
  store ptr %0, ptr %2, align 8, !tbaa !104
  %3 = load ptr, ptr %2, align 8
  %4 = getelementptr inbounds nuw %"class.std::_Hashtable", ptr %3, i32 0, i32 2
  %5 = getelementptr inbounds nuw %"struct.std::__detail::_Hash_node_base", ptr %4, i32 0, i32 0
  %6 = load ptr, ptr %5, align 8, !tbaa !155
  ret ptr %6
}

; Function Attrs: mustprogress nounwind uwtable
define linkonce_odr void @_ZNSt10_HashtableIjSt4pairIKjSt13unordered_mapINSt7__cxx1112basic_stringIcSt11char_traitsIcESaIcEEEN7rocksdb14TrackedKeyInfoESt4hashIS8_ESt8equal_toIS8_ESaIS0_IKS8_SA_EEEESaISJ_ENSt8__detail10_Select1stESD_IjESB_IjENSL_18_Mod_range_hashingENSL_20_Default_ranged_hashENSL_20_Prime_rehash_policyENSL_17_Hashtable_traitsILb0ELb0ELb1EEEE5clearEv(ptr noundef nonnull align 8 dereferenceable(56) %0) #3 comdat align 2 personality ptr @__gxx_personality_v0 {
  %2 = alloca ptr, align 8
  store ptr %0, ptr %2, align 8, !tbaa !104
  %3 = load ptr, ptr %2, align 8
  %4 = invoke noundef ptr @_ZNKSt10_HashtableIjSt4pairIKjSt13unordered_mapINSt7__cxx1112basic_stringIcSt11char_traitsIcESaIcEEEN7rocksdb14TrackedKeyInfoESt4hashIS8_ESt8equal_toIS8_ESaIS0_IKS8_SA_EEEESaISJ_ENSt8__detail10_Select1stESD_IjESB_IjENSL_18_Mod_range_hashingENSL_20_Default_ranged_hashENSL_20_Prime_rehash_policyENSL_17_Hashtable_traitsILb0ELb0ELb1EEEE8_M_beginEv(ptr noundef nonnull align 8 dereferenceable(56) %3)
          to label %5 unwind label %15

5:                                                ; preds = %1
  invoke void @_ZNSt8__detail16_Hashtable_allocISaINS_10_Hash_nodeISt4pairIKjSt13unordered_mapINSt7__cxx1112basic_stringIcSt11char_traitsIcESaIcEEEN7rocksdb14TrackedKeyInfoESt4hashISA_ESt8equal_toISA_ESaIS2_IKSA_SC_EEEELb0EEEEE19_M_deallocate_nodesEPSM_(ptr noundef nonnull align 1 dereferenceable(1) %3, ptr noundef %4)
          to label %6 unwind label %15

6:                                                ; preds = %5
  %7 = getelementptr inbounds nuw %"class.std::_Hashtable", ptr %3, i32 0, i32 0
  %8 = load ptr, ptr %7, align 8, !tbaa !106
  %9 = getelementptr inbounds nuw %"class.std::_Hashtable", ptr %3, i32 0, i32 1
  %10 = load i64, ptr %9, align 8, !tbaa !108
  %11 = mul i64 %10, 8
  call void @llvm.memset.p0.i64(ptr align 8 %8, i8 0, i64 %11, i1 false)
  %12 = getelementptr inbounds nuw %"class.std::_Hashtable", ptr %3, i32 0, i32 3
  store i64 0, ptr %12, align 8, !tbaa !109
  %13 = getelementptr inbounds nuw %"class.std::_Hashtable", ptr %3, i32 0, i32 2
  %14 = getelementptr inbounds nuw %"struct.std::__detail::_Hash_node_base", ptr %13, i32 0, i32 0
  store ptr null, ptr %14, align 8, !tbaa !155
  ret void

15:                                               ; preds = %5, %1
  %16 = landingpad { ptr, i32 }
          catch ptr null
  %17 = extractvalue { ptr, i32 } %16, 0
  call void @__clang_call_terminate(ptr %17) #19
  unreachable
}

; Function Attrs: mustprogress nounwind uwtable
define linkonce_odr void @_ZNSt13unordered_mapIjS_INSt7__cxx1112basic_stringIcSt11char_traitsIcESaIcEEEN7rocksdb14TrackedKeyInfoESt4hashIS5_ESt8equal_toIS5_ESaISt4pairIKS5_S7_EEES8_IjESA_IjESaISC_IKjSG_EEE5clearEv(ptr noundef nonnull align 8 dereferenceable(56) %0) #3 comdat align 2 {
  %2 = alloca ptr, align 8
  store ptr %0, ptr %2, align 8, !tbaa !36
  %3 = load ptr, ptr %2, align 8
  %4 = getelementptr inbounds nuw %"class.std::unordered_map", ptr %3, i32 0, i32 0
  call void @_ZNSt10_HashtableIjSt4pairIKjSt13unordered_mapINSt7__cxx1112basic_stringIcSt11char_traitsIcESaIcEEEN7rocksdb14TrackedKeyInfoESt4hashIS8_ESt8equal_toIS8_ESaIS0_IKS8_SA_EEEESaISJ_ENSt8__detail10_Select1stESD_IjESB_IjENSL_18_Mod_range_hashingENSL_20_Default_ranged_hashENSL_20_Prime_rehash_policyENSL_17_Hashtable_traitsILb0ELb0ELb1EEEE5clearEv(ptr noundef nonnull align 8 dereferenceable(56) %4) #16
  ret void
}

; Function Attrs: mustprogress nounwind uwtable
define void @_ZN7rocksdb16PointLockTracker5ClearEv(ptr noundef nonnull align 8 dereferenceable(64) %0) unnamed_addr #3 align 2 {
  %2 = alloca ptr, align 8
  store ptr %0, ptr %2, align 8, !tbaa !4
  %3 = load ptr, ptr %2, align 8
  %4 = getelementptr inbounds nuw %"class.rocksdb::PointLockTracker", ptr %3, i32 0, i32 1
  call void @_ZNSt13unordered_mapIjS_INSt7__cxx1112basic_stringIcSt11char_traitsIcESaIcEEEN7rocksdb14TrackedKeyInfoESt4hashIS5_ESt8equal_toIS5_ESaISt4pairIKS5_S7_EEES8_IjESA_IjESaISC_IKjSG_EEE5clearEv(ptr noundef nonnull align 8 dereferenceable(56) %4) #16
  ret void
}