; Function Attrs: mustprogress nounwind uwtable
define void @_ZN7rocksdb16PointLockTracker5ClearEv(ptr noundef nonnull align 8 dereferenceable(64) %0) unnamed_addr #7 align 2 personality ptr @__gxx_personality_v0 {
  %2 = getelementptr inbounds nuw i8, ptr %0, i64 8
  %3 = getelementptr inbounds nuw i8, ptr %0, i64 24
  %4 = load ptr, ptr %3, align 8, !tbaa !71
  invoke void @_ZNSt8__detail16_Hashtable_allocISaINS_10_Hash_nodeISt4pairIKjSt13unordered_mapINSt7__cxx1112basic_stringIcSt11char_traitsIcESaIcEEEN7rocksdb14TrackedKeyInfoESt4hashISA_ESt8equal_toISA_ESaIS2_IKSA_SC_EEEELb0EEEEE19_M_deallocate_nodesEPSM_(ptr noundef nonnull align 8 dereferenceable(56) %2, ptr noundef %4)
          to label %_ZNSt13unordered_mapIjS_INSt7__cxx1112basic_stringIcSt11char_traitsIcESaIcEEEN7rocksdb14TrackedKeyInfoESt4hashIS5_ESt8equal_toIS5_ESaISt4pairIKS5_S7_EEES8_IjESA_IjESaISC_IKjSG_EEE5clearEv.exit unwind label %5

5:                                                ; preds = %1
  %6 = landingpad { ptr, i32 }
          catch ptr null
  %7 = extractvalue { ptr, i32 } %6, 0
  tail call void @__clang_call_terminate(ptr %7) #18
  unreachable

_ZNSt13unordered_mapIjS_INSt7__cxx1112basic_stringIcSt11char_traitsIcESaIcEEEN7rocksdb14TrackedKeyInfoESt4hashIS5_ESt8equal_toIS5_ESaISt4pairIKS5_S7_EEES8_IjESA_IjESaISC_IKjSG_EEE5clearEv.exit: ; preds = %1
  %8 = load ptr, ptr %2, align 8, !tbaa !37
  %9 = getelementptr inbounds nuw i8, ptr %0, i64 16
  %10 = load i64, ptr %9, align 8, !tbaa !36
  %11 = shl i64 %10, 3
  tail call void @llvm.memset.p0.i64(ptr align 8 %8, i8 0, i64 %11, i1 false)
  tail call void @llvm.memset.p0.i64(ptr noundef nonnull align 8 dereferenceable(16) %3, i8 0, i64 16, i1 false)
  ret void
}